target datalayout = "e-m:e-p270:32:32-p271:32:32-p272:64:64-i64:64-i128:128-f80:128-n8:16:32:64-S128"
target triple = "x86_64-pc-linux-gnu"

%struct.UTrieHeader = type { i32, i32, i32, i32 }
%struct.UDataSwapper = type { i8, i8, i8, i8, ptr, ptr, ptr, ptr, ptr, ptr, ptr, ptr, ptr, ptr, ptr }

; Function Attrs: inlinehint mustprogress nounwind uwtable
define internal noundef signext i8 @_ZL9U_FAILURE10UErrorCode(i32 noundef %0) #2 {
  %2 = alloca i32, align 4
  store i32 %0, ptr %2, align 4, !tbaa !11
  %3 = load i32, ptr %2, align 4, !tbaa !11
  %4 = icmp sgt i32 %3, 0
  %5 = zext i1 %4 to i8
  ret i8 %5
}

; Function Attrs: mustprogress uwtable
define i32 @utrie_swap_77(ptr noundef %0, ptr noundef %1, i32 noundef %2, ptr noundef %3, ptr noundef %4) #0 {
  %6 = alloca i32, align 4
  %7 = alloca ptr, align 8
  %8 = alloca ptr, align 8
  %9 = alloca i32, align 4
  %10 = alloca ptr, align 8
  %11 = alloca ptr, align 8
  %12 = alloca ptr, align 8
  %13 = alloca %struct.UTrieHeader, align 4
  %14 = alloca i32, align 4
  %15 = alloca i8, align 1
  %16 = alloca i32, align 4
  %17 = alloca ptr, align 8
  store ptr %0, ptr %7, align 8, !tbaa !3
  store ptr %1, ptr %8, align 8, !tbaa !8
  store i32 %2, ptr %9, align 4, !tbaa !9
  store ptr %3, ptr %10, align 8, !tbaa !8
  store ptr %4, ptr %11, align 8, !tbaa !8
  call void @llvm.lifetime.start.p0(i64 8, ptr %12) #6
  call void @llvm.lifetime.start.p0(i64 16, ptr %13) #6
  call void @llvm.lifetime.start.p0(i64 4, ptr %14) #6
  call void @llvm.lifetime.start.p0(i64 1, ptr %15) #6
  %18 = load ptr, ptr %11, align 8, !tbaa !8
  %19 = icmp eq ptr %18, null
  br i1 %19, label %25, label %20

20:                                               ; preds = %5
  %21 = load ptr, ptr %11, align 8, !tbaa !8
  %22 = load i32, ptr %21, align 4, !tbaa !11
  %23 = call noundef signext i8 @_ZL9U_FAILURE10UErrorCode(i32 noundef %22)
  %24 = icmp ne i8 %23, 0
  br i1 %24, label %25, label %26

25:                                               ; preds = %20, %5
  store i32 0, ptr %6, align 4
  store i32 1, ptr %16, align 4
  br label %220

26:                                               ; preds = %20
  %27 = load ptr, ptr %7, align 8, !tbaa !3
  %28 = icmp eq ptr %27, null
  br i1 %28, label %38, label %29

29:                                               ; preds = %26
  %30 = load ptr, ptr %8, align 8, !tbaa !8
  %31 = icmp eq ptr %30, null
  br i1 %31, label %38, label %32

32:                                               ; preds = %29
  %33 = load i32, ptr %9, align 4, !tbaa !9
  %34 = icmp sge i32 %33, 0
  br i1 %34, label %35, label %40

35:                                               ; preds = %32
  %36 = load ptr, ptr %10, align 8, !tbaa !8
  %37 = icmp eq ptr %36, null
  br i1 %37, label %38, label %40

38:                                               ; preds = %35, %29, %26
  %39 = load ptr, ptr %11, align 8, !tbaa !8
  store i32 1, ptr %39, align 4, !tbaa !11
  store i32 0, ptr %6, align 4
  store i32 1, ptr %16, align 4
  br label %220

40:                                               ; preds = %35, %32
  %41 = load i32, ptr %9, align 4, !tbaa !9
  %42 = icmp sge i32 %41, 0
  br i1 %42, label %43, label %49

43:                                               ; preds = %40
  %44 = load i32, ptr %9, align 4, !tbaa !9
  %45 = zext i32 %44 to i64
  %46 = icmp ult i64 %45, 16
  br i1 %46, label %47, label %49

47:                                               ; preds = %43
  %48 = load ptr, ptr %11, align 8, !tbaa !8
  store i32 8, ptr %48, align 4, !tbaa !11
  store i32 0, ptr %6, align 4
  store i32 1, ptr %16, align 4
  br label %220

49:                                               ; preds = %43, %40
  %50 = load ptr, ptr %8, align 8, !tbaa !8
  store ptr %50, ptr %12, align 8, !tbaa !13
  %51 = load ptr, ptr %7, align 8, !tbaa !3
  %52 = getelementptr inbounds nuw %struct.UDataSwapper, ptr %51, i32 0, i32 5
  %53 = load ptr, ptr %52, align 8, !tbaa !15
  %54 = load ptr, ptr %12, align 8, !tbaa !13
  %55 = getelementptr inbounds nuw %struct.UTrieHeader, ptr %54, i32 0, i32 0
  %56 = load i32, ptr %55, align 4, !tbaa !17
  %57 = call noundef i32 %53(i32 noundef %56)
  %58 = getelementptr inbounds nuw %struct.UTrieHeader, ptr %13, i32 0, i32 0
  store i32 %57, ptr %58, align 4, !tbaa !17
  %59 = load ptr, ptr %7, align 8, !tbaa !3
  %60 = getelementptr inbounds nuw %struct.UDataSwapper, ptr %59, i32 0, i32 5
  %61 = load ptr, ptr %60, align 8, !tbaa !15
  %62 = load ptr, ptr %12, align 8, !tbaa !13
  %63 = getelementptr inbounds nuw %struct.UTrieHeader, ptr %62, i32 0, i32 1
  %64 = load i32, ptr %63, align 4, !tbaa !19
  %65 = call noundef i32 %61(i32 noundef %64)
  %66 = getelementptr inbounds nuw %struct.UTrieHeader, ptr %13, i32 0, i32 1
  store i32 %65, ptr %66, align 4, !tbaa !19
  %67 = load ptr, ptr %7, align 8, !tbaa !3
  %68 = load ptr, ptr %12, align 8, !tbaa !13
  %69 = getelementptr inbounds nuw %struct.UTrieHeader, ptr %68, i32 0, i32 2
  %70 = load i32, ptr %69, align 4, !tbaa !20
  %71 = call i32 @udata_readInt32_77(ptr noundef %67, i32 noundef %70)
  %72 = getelementptr inbounds nuw %struct.UTrieHeader, ptr %13, i32 0, i32 2
  store i32 %71, ptr %72, align 4, !tbaa !20
  %73 = load ptr, ptr %7, align 8, !tbaa !3
  %74 = load ptr, ptr %12, align 8, !tbaa !13
  %75 = getelementptr inbounds nuw %struct.UTrieHeader, ptr %74, i32 0, i32 3
  %76 = load i32, ptr %75, align 4, !tbaa !21
  %77 = call i32 @udata_readInt32_77(ptr noundef %73, i32 noundef %76)
  %78 = getelementptr inbounds nuw %struct.UTrieHeader, ptr %13, i32 0, i32 3
  store i32 %77, ptr %78, align 4, !tbaa !21
  %79 = getelementptr inbounds nuw %struct.UTrieHeader, ptr %13, i32 0, i32 0
  %80 = load i32, ptr %79, align 4, !tbaa !17
  %81 = icmp ne i32 %80, 1416784229
  br i1 %81, label %120, label %82

82:                                               ; preds = %49
  %83 = getelementptr inbounds nuw %struct.UTrieHeader, ptr %13, i32 0, i32 1
  %84 = load i32, ptr %83, align 4, !tbaa !19
  %85 = and i32 %84, 15
  %86 = icmp ne i32 %85, 5
  br i1 %86, label %120, label %87

87:                                               ; preds = %82
  %88 = getelementptr inbounds nuw %struct.UTrieHeader, ptr %13, i32 0, i32 1
  %89 = load i32, ptr %88, align 4, !tbaa !19
  %90 = lshr i32 %89, 4
  %91 = and i32 %90, 15
  %92 = icmp ne i32 %91, 2
  br i1 %92, label %120, label %93

93:                                               ; preds = %87
  %94 = getelementptr inbounds nuw %struct.UTrieHeader, ptr %13, i32 0, i32 2
  %95 = load i32, ptr %94, align 4, !tbaa !20
  %96 = icmp slt i32 %95, 2048
  br i1 %96, label %120, label %97

97:                                               ; preds = %93
  %98 = getelementptr inbounds nuw %struct.UTrieHeader, ptr %13, i32 0, i32 2
  %99 = load i32, ptr %98, align 4, !tbaa !20
  %100 = and i32 %99, 31
  %101 = icmp ne i32 %100, 0
  br i1 %101, label %120, label %102

102:                                              ; preds = %97
  %103 = getelementptr inbounds nuw %struct.UTrieHeader, ptr %13, i32 0, i32 3
  %104 = load i32, ptr %103, align 4, !tbaa !21
  %105 = icmp slt i32 %104, 32
  br i1 %105, label %120, label %106

106:                                              ; preds = %102
  %107 = getelementptr inbounds nuw %struct.UTrieHeader, ptr %13, i32 0, i32 3
  %108 = load i32, ptr %107, align 4, !tbaa !21
  %109 = and i32 %108, 3
  %110 = icmp ne i32 %109, 0
  br i1 %110, label %120, label %111

111:                                              ; preds = %106
  %112 = getelementptr inbounds nuw %struct.UTrieHeader, ptr %13, i32 0, i32 1
  %113 = load i32, ptr %112, align 4, !tbaa !19
  %114 = and i32 %113, 512
  %115 = icmp ne i32 %114, 0
  br i1 %115, label %116, label %122

116:                                              ; preds = %111
  %117 = getelementptr inbounds nuw %struct.UTrieHeader, ptr %13, i32 0, i32 3
  %118 = load i32, ptr %117, align 4, !tbaa !21
  %119 = icmp slt i32 %118, 288
  br i1 %119, label %120, label %122

120:                                              ; preds = %116, %106, %102, %97, %93, %87, %82, %49
  %121 = load ptr, ptr %11, align 8, !tbaa !8
  store i32 3, ptr %121, align 4, !tbaa !11
  store i32 0, ptr %6, align 4
  store i32 1, ptr %16, align 4
  br label %220

122:                                              ; preds = %116, %111
  %123 = getelementptr inbounds nuw %struct.UTrieHeader, ptr %13, i32 0, i32 1
  %124 = load i32, ptr %123, align 4, !tbaa !19
  %125 = and i32 %124, 256
  %126 = icmp ne i32 %125, 0
  %127 = zext i1 %126 to i8
  store i8 %127, ptr %15, align 1, !tbaa !22
  %128 = getelementptr inbounds nuw %struct.UTrieHeader, ptr %13, i32 0, i32 2
  %129 = load i32, ptr %128, align 4, !tbaa !20
  %130 = mul nsw i32 %129, 2
  %131 = sext i32 %130 to i64
  %132 = add i64 16, %131
  %133 = getelementptr inbounds nuw %struct.UTrieHeader, ptr %13, i32 0, i32 3
  %134 = load i32, ptr %133, align 4, !tbaa !21
  %135 = load i8, ptr %15, align 1, !tbaa !22
  %136 = icmp ne i8 %135, 0
  %137 = select i1 %136, i32 4, i32 2
  %138 = mul nsw i32 %134, %137
  %139 = sext i32 %138 to i64
  %140 = add i64 %132, %139
  %141 = trunc i64 %140 to i32
  store i32 %141, ptr %14, align 4, !tbaa !9
  %142 = load i32, ptr %9, align 4, !tbaa !9
  %143 = icmp sge i32 %142, 0
  br i1 %143, label %144, label %218

144:                                              ; preds = %122
  call void @llvm.lifetime.start.p0(i64 8, ptr %17) #6
  %145 = load i32, ptr %9, align 4, !tbaa !9
  %146 = load i32, ptr %14, align 4, !tbaa !9
  %147 = icmp slt i32 %145, %146
  br i1 %147, label %148, label %150

148:                                              ; preds = %144
  %149 = load ptr, ptr %11, align 8, !tbaa !8
  store i32 8, ptr %149, align 4, !tbaa !11
  store i32 0, ptr %6, align 4
  store i32 1, ptr %16, align 4
  br label %215

150:                                              ; preds = %144
  %151 = load ptr, ptr %10, align 8, !tbaa !8
  store ptr %151, ptr %17, align 8, !tbaa !13
  %152 = load ptr, ptr %7, align 8, !tbaa !3
  %153 = getelementptr inbounds nuw %struct.UDataSwapper, ptr %152, i32 0, i32 10
  %154 = load ptr, ptr %153, align 8, !tbaa !23
  %155 = load ptr, ptr %7, align 8, !tbaa !3
  %156 = load ptr, ptr %12, align 8, !tbaa !13
  %157 = load ptr, ptr %17, align 8, !tbaa !13
  %158 = load ptr, ptr %11, align 8, !tbaa !8
  %159 = call noundef i32 %154(ptr noundef %155, ptr noundef %156, i32 noundef 16, ptr noundef %157, ptr noundef %158)
  %160 = load i8, ptr %15, align 1, !tbaa !22
  %161 = icmp ne i8 %160, 0
  br i1 %161, label %162, label %197

162:                                              ; preds = %150
  %163 = load ptr, ptr %7, align 8, !tbaa !3
  %164 = getelementptr inbounds nuw %struct.UDataSwapper, ptr %163, i32 0, i32 9
  %165 = load ptr, ptr %164, align 8, !tbaa !24
  %166 = load ptr, ptr %7, align 8, !tbaa !3
  %167 = load ptr, ptr %12, align 8, !tbaa !13
  %168 = getelementptr inbounds %struct.UTrieHeader, ptr %167, i64 1
  %169 = getelementptr inbounds nuw %struct.UTrieHeader, ptr %13, i32 0, i32 2
  %170 = load i32, ptr %169, align 4, !tbaa !20
  %171 = mul nsw i32 %170, 2
  %172 = load ptr, ptr %17, align 8, !tbaa !13
  %173 = getelementptr inbounds %struct.UTrieHeader, ptr %172, i64 1
  %174 = load ptr, ptr %11, align 8, !tbaa !8
  %175 = call noundef i32 %165(ptr noundef %166, ptr noundef %168, i32 noundef %171, ptr noundef %173, ptr noundef %174)
  %176 = load ptr, ptr %7, align 8, !tbaa !3
  %177 = getelementptr inbounds nuw %struct.UDataSwapper, ptr %176, i32 0, i32 10
  %178 = load ptr, ptr %177, align 8, !tbaa !23
  %179 = load ptr, ptr %7, align 8, !tbaa !3
  %180 = load ptr, ptr %12, align 8, !tbaa !13
  %181 = getelementptr inbounds %struct.UTrieHeader, ptr %180, i64 1
  %182 = getelementptr inbounds nuw %struct.UTrieHeader, ptr %13, i32 0, i32 2
  %183 = load i32, ptr %182, align 4, !tbaa !20
  %184 = sext i32 %183 to i64
  %185 = getelementptr inbounds i16, ptr %181, i64 %184
  %186 = getelementptr inbounds nuw %struct.UTrieHeader, ptr %13, i32 0, i32 3
  %187 = load i32, ptr %186, align 4, !tbaa !21
  %188 = mul nsw i32 %187, 4
  %189 = load ptr, ptr %17, align 8, !tbaa !13
  %190 = getelementptr inbounds %struct.UTrieHeader, ptr %189, i64 1
  %191 = getelementptr inbounds nuw %struct.UTrieHeader, ptr %13, i32 0, i32 2
  %192 = load i32, ptr %191, align 4, !tbaa !20
  %193 = sext i32 %192 to i64
  %194 = getelementptr inbounds i16, ptr %190, i64 %193
  %195 = load ptr, ptr %11, align 8, !tbaa !8
  %196 = call noundef i32 %178(ptr noundef %179, ptr noundef %185, i32 noundef %188, ptr noundef %194, ptr noundef %195)
  br label %214

197:                                              ; preds = %150
  %198 = load ptr, ptr %7, align 8, !tbaa !3
  %199 = getelementptr inbounds nuw %struct.UDataSwapper, ptr %198, i32 0, i32 9
  %200 = load ptr, ptr %199, align 8, !tbaa !24
  %201 = load ptr, ptr %7, align 8, !tbaa !3
  %202 = load ptr, ptr %12, align 8, !tbaa !13
  %203 = getelementptr inbounds %struct.UTrieHeader, ptr %202, i64 1
  %204 = getelementptr inbounds nuw %struct.UTrieHeader, ptr %13, i32 0, i32 2
  %205 = load i32, ptr %204, align 4, !tbaa !20
  %206 = getelementptr inbounds nuw %struct.UTrieHeader, ptr %13, i32 0, i32 3
  %207 = load i32, ptr %206, align 4, !tbaa !21
  %208 = add nsw i32 %205, %207
  %209 = mul nsw i32 %208, 2
  %210 = load ptr, ptr %17, align 8, !tbaa !13
  %211 = getelementptr inbounds %struct.UTrieHeader, ptr %210, i64 1
  %212 = load ptr, ptr %11, align 8, !tbaa !8
  %213 = call noundef i32 %200(ptr noundef %201, ptr noundef %203, i32 noundef %209, ptr noundef %211, ptr noundef %212)
  br label %214

214:                                              ; preds = %197, %162
  store i32 0, ptr %16, align 4
  br label %215

215:                                              ; preds = %214, %148
  call void @llvm.lifetime.end.p0(i64 8, ptr %17) #6
  %216 = load i32, ptr %16, align 4
  switch i32 %216, label %220 [
    i32 0, label %217
  ]

217:                                              ; preds = %215
  br label %218

218:                                              ; preds = %217, %122
  %219 = load i32, ptr %14, align 4, !tbaa !9
  store i32 %219, ptr %6, align 4
  store i32 1, ptr %16, align 4
  br label %220

220:                                              ; preds = %218, %215, %120, %47, %38, %25
  call void @llvm.lifetime.end.p0(i64 1, ptr %15) #6
  call void @llvm.lifetime.end.p0(i64 4, ptr %14) #6
  call void @llvm.lifetime.end.p0(i64 16, ptr %13) #6
  call void @llvm.lifetime.end.p0(i64 8, ptr %12) #6
  %221 = load i32, ptr %6, align 4
  ret i32 %221
}