; Function Attrs: mustprogress uwtable
define range(i32 4176, 15) i32 @utrie_swap_77(ptr noundef %0, ptr noundef %1, i32 noundef %2, ptr noundef %3, ptr noundef %4) local_unnamed_addr #0 {
  %6 = icmp eq ptr %4, null
  br i1 %6, label %.thread, label %7

7:                                                ; preds = %5
  %8 = load i32, ptr %4, align 4, !tbaa !3
  %9 = icmp slt i32 %8, 1
  br i1 %9, label %10, label %.thread

10:                                               ; preds = %7
  %11 = icmp eq ptr %0, null
  %12 = icmp eq ptr %1, null
  %or.cond = or i1 %11, %12
  br i1 %or.cond, label %16, label %13

13:                                               ; preds = %10
  %14 = icmp sgt i32 %2, -1
  %15 = icmp eq ptr %3, null
  %or.cond3 = and i1 %14, %15
  br i1 %or.cond3, label %16, label %17

16:                                               ; preds = %13, %10
  store i32 1, ptr %4, align 4, !tbaa !3
  br label %.thread

17:                                               ; preds = %13
  %18 = icmp ult i32 %2, 16
  br i1 %18, label %19, label %20

19:                                               ; preds = %17
  store i32 8, ptr %4, align 4, !tbaa !3
  br label %.thread

20:                                               ; preds = %17
  %21 = getelementptr inbounds nuw i8, ptr %0, i64 16
  %22 = load ptr, ptr %21, align 8, !tbaa !7
  %23 = load i32, ptr %1, align 4, !tbaa !10
  %24 = tail call noundef i32 %22(i32 noundef %23)
  %25 = load ptr, ptr %21, align 8, !tbaa !7
  %26 = getelementptr inbounds nuw i8, ptr %1, i64 4
  %27 = load i32, ptr %26, align 4, !tbaa !13
  %28 = tail call noundef i32 %25(i32 noundef %27)
  %29 = getelementptr inbounds nuw i8, ptr %1, i64 8
  %30 = load i32, ptr %29, align 4, !tbaa !14
  %31 = tail call i32 @udata_readInt32_77(ptr noundef nonnull %0, i32 noundef %30)
  %32 = getelementptr inbounds nuw i8, ptr %1, i64 12
  %33 = load i32, ptr %32, align 4, !tbaa !15
  %34 = tail call i32 @udata_readInt32_77(ptr noundef nonnull %0, i32 noundef %33)
  %.not85 = icmp eq i32 %24, 1416784229
  %35 = and i32 %28, 15
  %.not86 = icmp eq i32 %35, 5
  %or.cond90 = and i1 %.not85, %.not86
  br i1 %or.cond90, label %36, label %50

36:                                               ; preds = %20
  %37 = and i32 %28, 240
  %38 = icmp ne i32 %37, 32
  %39 = icmp slt i32 %31, 2048
  %or.cond9 = select i1 %38, i1 true, i1 %39
  br i1 %or.cond9, label %50, label %40

40:                                               ; preds = %36
  %41 = and i32 %31, 31
  %42 = icmp eq i32 %41, 0
  %43 = icmp sgt i32 %34, 31
  %44 = and i32 %34, 3
  %.not87 = icmp eq i32 %44, 0
  %45 = and i1 %43, %.not87
  %or.cond91 = select i1 %42, i1 %45, i1 false
  br i1 %or.cond91, label %46, label %50

46:                                               ; preds = %40
  %47 = and i32 %28, 512
  %48 = icmp ne i32 %47, 0
  %49 = icmp samesign ult i32 %34, 288
  %or.cond15 = select i1 %48, i1 %49, i1 false
  br i1 %or.cond15, label %50, label %51

50:                                               ; preds = %46, %40, %36, %20
  store i32 3, ptr %4, align 4, !tbaa !3
  br label %.thread

51:                                               ; preds = %46
  %52 = and i32 %28, 256
  %.not88 = icmp eq i32 %52, 0
  %53 = shl nuw nsw i32 %31, 1
  %54 = or disjoint i32 %53, 16
  %55 = select i1 %.not88, i32 1, i32 2
  %56 = shl i32 %34, %55
  %57 = add i32 %56, %54
  br i1 %14, label %58, label %.thread

58:                                               ; preds = %51
  %.not89 = icmp slt i32 %2, %57
  br i1 %.not89, label %80, label %59

59:                                               ; preds = %58
  %60 = getelementptr inbounds nuw i8, ptr %0, i64 56
  %61 = load ptr, ptr %60, align 8, !tbaa !16
  %62 = tail call noundef i32 %61(ptr noundef nonnull %0, ptr noundef nonnull %1, i32 noundef 16, ptr noundef %3, ptr noundef nonnull %4)
  %63 = getelementptr inbounds nuw i8, ptr %0, i64 48
  %64 = load ptr, ptr %63, align 8, !tbaa !17
  %65 = getelementptr inbounds nuw i8, ptr %1, i64 16
  br i1 %.not88, label %75, label %66

66:                                               ; preds = %59
  %67 = getelementptr inbounds nuw i8, ptr %3, i64 16
  %68 = tail call noundef i32 %64(ptr noundef nonnull %0, ptr noundef nonnull %65, i32 noundef %53, ptr noundef nonnull %67, ptr noundef nonnull %4)
  %69 = load ptr, ptr %60, align 8, !tbaa !16
  %70 = zext nneg i32 %31 to i64
  %71 = getelementptr inbounds nuw i16, ptr %65, i64 %70
  %72 = shl nsw i32 %34, 2
  %73 = getelementptr inbounds nuw i16, ptr %67, i64 %70
  %74 = tail call noundef i32 %69(ptr noundef nonnull %0, ptr noundef nonnull %71, i32 noundef %72, ptr noundef nonnull %73, ptr noundef nonnull %4)
  br label %.thread

75:                                               ; preds = %59
  %76 = add nuw nsw i32 %34, %31
  %77 = shl nuw nsw i32 %76, 1
  %78 = getelementptr inbounds nuw i8, ptr %3, i64 16
  %79 = tail call noundef i32 %64(ptr noundef nonnull %0, ptr noundef nonnull %65, i32 noundef %77, ptr noundef nonnull %78, ptr noundef nonnull %4)
  br label %.thread

80:                                               ; preds = %58
  store i32 8, ptr %4, align 4, !tbaa !3
  br label %.thread

.thread:                                          ; preds = %75, %66, %51, %80, %5, %7, %50, %19, %16
  %.0 = phi i32 [ 0, %16 ], [ 0, %19 ], [ 0, %50 ], [ 0, %80 ], [ 0, %7 ], [ 0, %5 ], [ %57, %51 ], [ %57, %66 ], [ %57, %75 ]
  ret i32 %.0
}